; Function Attrs: mustprogress uwtable
define void @_Z17grpc_call_next_opP17grpc_call_elementP30grpc_transport_stream_op_batch(ptr noundef %elem, ptr noundef %op) local_unnamed_addr #6 personality ptr @__gxx_personality_v0 {
entry:
  %add.ptr = getelementptr inbounds i8, ptr %elem, i64 24
  %0 = load atomic i8, ptr getelementptr inbounds (%"class.grpc_core::TraceFlag", ptr @grpc_trace_channel, i64 0, i32 2, i32 0, i32 0) monotonic, align 8
  %1 = and i8 %0, 1
  %tobool.i.i.i.not = icmp eq i8 %1, 0
  br i1 %tobool.i.i.i.not, label %do.end, label %if.then

if.then:                                          ; preds = %entry
  tail call void @_Z16grpc_call_log_opPKci16gpr_log_severityP17grpc_call_elementP30grpc_transport_stream_op_batch(ptr noundef nonnull @.str.3, i32 noundef 265, i32 noundef 1, ptr noundef nonnull %add.ptr, ptr noundef %op)
  br label %do.end

do.end:                                           ; preds = %entry, %if.then
  %2 = load ptr, ptr %add.ptr, align 8
  %3 = load ptr, ptr %2, align 8
  tail call void %3(ptr noundef nonnull %add.ptr, ptr noundef %op)
  ret void
}